target datalayout = "e-m:e-p270:32:32-p271:32:32-p272:64:64-i64:64-i128:128-f80:128-n8:16:32:64-S128"
target triple = "x86_64-pc-linux-gnu"

%struct._xmlURI = type { ptr, ptr, ptr, ptr, ptr, i32, ptr, ptr, ptr, i32, ptr }

@.str.1 = private unnamed_addr constant [2 x i8] c":\00", align 1
@xmlFree = external global ptr, align 8
@.str.2 = private unnamed_addr constant [9 x i8] c"file:///\00", align 1
@.str.3 = private unnamed_addr constant [18 x i8] c"file://localhost/\00", align 1

; Function Attrs: nounwind uwtable
define hidden ptr @_xmlreader_get_valid_file_path(ptr noundef %0, ptr noundef %1, i32 noundef %2) #0 {
  %4 = alloca ptr, align 8
  %5 = alloca ptr, align 8
  %6 = alloca ptr, align 8
  %7 = alloca i32, align 4
  %8 = alloca ptr, align 8
  %9 = alloca ptr, align 8
  %10 = alloca ptr, align 8
  %11 = alloca i32, align 4
  store ptr %0, ptr %5, align 8
  store ptr %1, ptr %6, align 8
  store i32 %2, ptr %7, align 4
  store i32 0, ptr %11, align 4
  %12 = call ptr @xmlCreateURI()
  store ptr %12, ptr %8, align 8
  %13 = load ptr, ptr %8, align 8
  %14 = icmp eq ptr %13, null
  br i1 %14, label %15, label %16

15:                                               ; preds = %3
  store ptr null, ptr %4, align 8
  br label %70

16:                                               ; preds = %3
  %17 = load ptr, ptr %5, align 8
  %18 = call ptr @xmlURIEscapeStr(ptr noundef %17, ptr noundef @.str.1)
  store ptr %18, ptr %9, align 8
  %19 = load ptr, ptr %8, align 8
  %20 = load ptr, ptr %9, align 8
  %21 = call i32 @xmlParseURIReference(ptr noundef %19, ptr noundef %20)
  %22 = load ptr, ptr @xmlFree, align 8
  %23 = load ptr, ptr %9, align 8
  call void %22(ptr noundef %23)
  %24 = load ptr, ptr %8, align 8
  %25 = getelementptr inbounds %struct._xmlURI, ptr %24, i32 0, i32 0
  %26 = load ptr, ptr %25, align 8
  %27 = icmp ne ptr %26, null
  br i1 %27, label %28, label %44

28:                                               ; preds = %16
  %29 = load ptr, ptr %5, align 8
  %30 = call i32 @strncasecmp(ptr noundef %29, ptr noundef @.str.2, i64 noundef 8) #10
  %31 = icmp eq i32 %30, 0
  br i1 %31, label %32, label %35

32:                                               ; preds = %28
  store i32 1, ptr %11, align 4
  %33 = load ptr, ptr %5, align 8
  %34 = getelementptr inbounds i8, ptr %33, i64 7
  store ptr %34, ptr %5, align 8
  br label %43

35:                                               ; preds = %28
  %36 = load ptr, ptr %5, align 8
  %37 = call i32 @strncasecmp(ptr noundef %36, ptr noundef @.str.3, i64 noundef 17) #10
  %38 = icmp eq i32 %37, 0
  br i1 %38, label %39, label %42

39:                                               ; preds = %35
  store i32 1, ptr %11, align 4
  %40 = load ptr, ptr %5, align 8
  %41 = getelementptr inbounds i8, ptr %40, i64 16
  store ptr %41, ptr %5, align 8
  br label %42

42:                                               ; preds = %39, %35
  br label %43

43:                                               ; preds = %42, %32
  br label %44

44:                                               ; preds = %43, %16
  %45 = load ptr, ptr %5, align 8
  store ptr %45, ptr %10, align 8
  %46 = load ptr, ptr %8, align 8
  %47 = getelementptr inbounds %struct._xmlURI, ptr %46, i32 0, i32 0
  %48 = load ptr, ptr %47, align 8
  %49 = icmp eq ptr %48, null
  br i1 %49, label %53, label %50

50:                                               ; preds = %44
  %51 = load i32, ptr %11, align 4
  %52 = icmp ne i32 %51, 0
  br i1 %52, label %53, label %67

53:                                               ; preds = %50, %44
  %54 = load ptr, ptr %5, align 8
  %55 = load ptr, ptr %6, align 8
  %56 = call ptr @tsrm_realpath(ptr noundef %54, ptr noundef %55)
  %57 = icmp ne ptr %56, null
  br i1 %57, label %65, label %58

58:                                               ; preds = %53
  %59 = load ptr, ptr %5, align 8
  %60 = load ptr, ptr %6, align 8
  %61 = call ptr @expand_filepath(ptr noundef %59, ptr noundef %60)
  %62 = icmp ne ptr %61, null
  br i1 %62, label %65, label %63

63:                                               ; preds = %58
  %64 = load ptr, ptr %8, align 8
  call void @xmlFreeURI(ptr noundef %64)
  store ptr null, ptr %4, align 8
  br label %70

65:                                               ; preds = %58, %53
  %66 = load ptr, ptr %6, align 8
  store ptr %66, ptr %10, align 8
  br label %67

67:                                               ; preds = %65, %50
  %68 = load ptr, ptr %8, align 8
  call void @xmlFreeURI(ptr noundef %68)
  %69 = load ptr, ptr %10, align 8
  store ptr %69, ptr %4, align 8
  br label %70

70:                                               ; preds = %67, %63, %15
  %71 = load ptr, ptr %4, align 8
  ret ptr %71
}