; Function Attrs: nounwind uwtable
define hidden ptr @_xmlreader_get_valid_file_path(ptr noundef %0, ptr noundef %1, i32 %2) local_unnamed_addr #0 {
  %4 = tail call ptr @xmlCreateURI() #11
  %5 = icmp eq ptr %4, null
  br i1 %5, label %22, label %6

6:                                                ; preds = %3
  %7 = tail call ptr @xmlURIEscapeStr(ptr noundef %0, ptr noundef nonnull @.str.1) #11
  %8 = tail call i32 @xmlParseURIReference(ptr noundef nonnull %4, ptr noundef %7) #11
  %9 = load ptr, ptr @xmlFree, align 8
  tail call void %9(ptr noundef %7) #11
  %10 = load ptr, ptr %4, align 8
  %.not = icmp eq ptr %10, null
  br i1 %.not, label %.thread, label %11

11:                                               ; preds = %6
  %12 = tail call i32 @strncasecmp(ptr noundef %0, ptr noundef nonnull @.str.2, i64 noundef 8) #12
  %13 = icmp eq i32 %12, 0
  br i1 %13, label %14, label %16

14:                                               ; preds = %11
  %15 = getelementptr inbounds i8, ptr %0, i64 7
  br label %.thread

16:                                               ; preds = %11
  %17 = tail call i32 @strncasecmp(ptr noundef %0, ptr noundef nonnull @.str.3, i64 noundef 17) #12
  %18 = icmp eq i32 %17, 0
  %spec.select.idx = select i1 %18, i64 16, i64 0
  %spec.select = getelementptr inbounds i8, ptr %0, i64 %spec.select.idx
  br i1 %18, label %.thread, label %.sink.split

.thread:                                          ; preds = %14, %6, %16
  %.02431 = phi ptr [ %spec.select, %16 ], [ %0, %6 ], [ %15, %14 ]
  %19 = tail call ptr @tsrm_realpath(ptr noundef %.02431, ptr noundef %1) #11
  %.not26 = icmp eq ptr %19, null
  br i1 %.not26, label %20, label %.sink.split

20:                                               ; preds = %.thread
  %21 = tail call ptr @expand_filepath(ptr noundef %.02431, ptr noundef %1) #11
  %.not27 = icmp eq ptr %21, null
  %spec.select32 = select i1 %.not27, ptr null, ptr %1
  br label %.sink.split

.sink.split:                                      ; preds = %20, %16, %.thread
  %.023.ph = phi ptr [ %spec.select, %16 ], [ %1, %.thread ], [ %spec.select32, %20 ]
  tail call void @xmlFreeURI(ptr noundef nonnull %4) #11
  br label %22

22:                                               ; preds = %.sink.split, %3
  %.023 = phi ptr [ null, %3 ], [ %.023.ph, %.sink.split ]
  ret ptr %.023
}